((dp1
S'tag_12'
p2
(F12.849172758410146
F-0.1490242594598355
F-16.052511649367482
tp3
sS'tag_10'
p4
(F20.81250297213796
F-1.4269084846487921
F66.113262275970285
tp5
sS'tag_584'
p6
(F5.2549139097318074
F-0.42831589716090407
F18.700364385557602
tp7
sS'tag_38'
p8
(F1.3779031360590022
F0.28573524692019592
F2.3482102610597213
tp9
sS'tag_39'
p10
(F1.3835164269044413
F-0.27642896915296383
F-0.35136532515034036
tp11
sS'tag_14'
p12
(F12.585304358142022
F4.7565051384186381
F-24.906084072665376
tp13
sS'tag_15'
p14
(F6.0599096452361083
F3.7524618327774619
F18.300879086511475
tp15
sS'tag_8'
p16
(F6.6810658984539613
F0.0030990202899731645
F-33.035717572458324
tp17
sS'tag_9'
p18
(F14.633961506134106
F-0.6204858512069602
F34.675598930741849
tp19
sS'tag_11'
p20
(F19.745052897046332
F3.5257185492633139
F50.875425049991648
tp21
sS'tag_0'
p22
(F21.029531237909058
F3.3128909301229914
F65.956690555627077
tp23
sS'tag_2'
p24
(F12.222825966402556
F4.249796852872846
F25.476630034083133
tp25
sS'tag_3'
p26
(F6.3562473504672843
F4.4753814509091798
F-4.1450455102888029
tp27
s(dp28
g2
(F-0.55175937788585783
F0.56763537128009489
F0.43951304563989529
F-0.4244760969702101
tp29
sg4
(F0.015221850852069448
F0.33120174199233593
F0.031488698014303429
F0.94291153522228344
tp30
sg6
(F0.014490087203143718
F0.77113642887632128
F0.0061438111807057254
F0.63647537188558634
tp31
sg8
(F-0.58006749962332194
F0.40102738532155974
F0.39434262248791535
F0.58923053908657352
tp32
sg10
(F0.012611770384937548
F0.99974974374636638
F0.017397527605906987
F-0.0062224721802472682
tp33
sg12
(F-0.39582490666228209
F0.40945943734649343
F-0.56284219741363251
F0.59906115985288388
tp34
sg14
(F0.77329007491312718
F-0.0089810813486548863
F0.63368764974456904
F-0.019538750724226509
tp35
sg16
(F0.12625634363896579
F-0.12855687612042074
F-0.67839286748744054
F0.71226089506250856
tp36
sg18
(F0.41547622217378088
F-0.38562575648555242
F-0.57698154149067249
F0.58801750443519585
tp37
sg20
(F3.9736813746638297e-05
F0.89075376551731833
F0.015697463884141342
F0.45421505618518426
tp38
sg22
(F-0.21301681891806656
F0.24256229501961304
F-0.65249930495710451
F0.68558881621810408
tp39
sg24
(F-0.44254575744108332
F-0.43918984814623985
F0.56258226471812522
F0.54292423530434331
tp40
sg26
(F0.012262159481726233
F0.64539732043672127
F0.016256486460614283
F0.76357557901356476
tp41
sg8
t.