((dp1
S'tag_584'
p2
(F10.176075271822384
F-2.5268010827272285
F15.606875615462339
tp3
sS'tag_23'
p4
(F15.450804713663965
F0.61489733136152602
F24.157422489615922
tp5
sS'tag_22'
p6
(F17.050387820721916
F-13.746083775203507
F64.034299946112512
tp7
sS'tag_21'
p8
(F15.977999314683332
F-6.6895848525413157
F33.119445017390845
tp9
sS'tag_20'
p10
(F20.876462169389256
F3.3850268232007199
F-16.706125519320487
tp11
sS'tag_25'
p12
(F22.512323987729506
F9.9573649858178808
F-25.89700151038182
tp13
sS'tag_24'
p14
(F21.10264765195976
F-6.9986162957473024
F66.898989459629036
tp15
sS'tag_0'
p16
(cnumpy.core.multiarray
scalar
p17
(cnumpy
dtype
p18
(S'f8'
I0
I1
tRp19
(I3
S'<'
NNNI-1
I-1
I0
tbS'\xdeB\x0c\xc0\r\x0c\x0c\xc0'
tRp20
g17
(g19
S'\xa0\xf1\x05\xa6|n\xc0\xbf'
tRp21
g17
(g19
S'\xa0\xd7\x98\xb7\x8a\x11\xe5\xbf'
tRp22
tp23
sS'tag_3'
p24
(F6.8720718829275009
F0.64676934140228082
F-3.1716044457524313
tp25
sS'tag_4'
p26
(F4.8729320438922112
F-1.4325949045545729
F6.8830021536629831
tp27
s(dp28
g2
(F0.054911026283217104
F0.72754324516484925
F0.072377513974061558
F0.68001992697159863
tp29
sg4
(F0.058414689557433175
F-0.65276145209702796
F-0.051193583886497099
F0.75357111653044695
tp30
sg6
(F0.10009058689993881
F0.20306865793414333
F0.074757239072430134
F0.97116237045363285
tp31
sg8
(F0.10581604771918669
F0.11012611405351073
F0.045649810032146444
F0.98721390685737043
tp32
sg10
(F0.035109584886704764
F-0.84113328913187879
F-0.070037463584231213
F0.535123220069881
tp33
sg12
(F0.06796863092193299
F0.4833509161528699
F0.064034779257115648
F0.87043190664765491
tp34
sg14
(F0.070002395914542132
F0.85601884475856971
F0.091711196269518749
F0.50390520781516135
tp35
sg16
(g17
(g19
S's\x80"t\xbd\x87\xbb?'
tRp36
g17
(g19
S'U\xb4\x0c\x9c_\xab\xe4?'
tRp37
g17
(g19
S'\x03+\x19a@\xd5\xe7?'
tRp38
g17
(g19
S'\x94\x00\x83\x83\x17t\xc0\xbf'
tRp39
tp40
sg24
(F0.088634256957398891
F-0.05651794923119266
F0.012547052612223315
F0.99438034040253243
tp41
sg26
(F0.073922609967030317
F0.6368204631008999
F0.092769380833623849
F0.76183265058106009
tp42
sg16
t.