((dp1
S'tag_1'
p2
(F50.787252211426534
F-5.7770806466032969
F9.4674808771947028
tp3
sS'tag_584'
p4
(F16.547731044571854
F-0.71300349086722026
F-14.335900830008503
tp5
s(dp6
g2
(F0.86303170411991892
F-0.023769361523463484
F-0.50457463888707221
F-0.0039659713332639282
tp7
sg4
(F0.047955600675689485
F0.69953951769101008
F0.71182798387641311
F-0.040566549309793663
tp8
sg4
t.