((dp1
S'tag_12'
p2
(F31.642017044445208
F-1.4328946436358336
F7.9368254077727745
tp3
sS'tag_13'
p4
(F16.073858419064052
F-5.9864571047641606
F4.4915548864948036
tp5
sS'tag_10'
p6
(F-50.306303519355502
F-0.93770396564858505
F13.473348807544152
tp7
sS'tag_584'
p8
(F26.384040885097811
F1.3695756375050925
F0.69877373207921112
tp9
sS'tag_38'
p10
(F14.572189001841977
F-1.4728091403126715
F-3.9889481076676918
tp11
sS'tag_17'
p12
(F49.374026802889709
F-10.593224113681682
F9.3375879189846067
tp13
sS'tag_14'
p14
(F40.90842534201424
F3.9730430396592791
F13.33736212792396
tp15
sS'tag_15'
p16
(F-0.85949863794176551
F4.0665541608287956
F0.0037070520478028612
tp17
sS'tag_18'
p18
(F-33.088524297211322
F-5.8321824023108428
F16.397126747367199
tp19
sS'tag_19'
p20
(F-18.022994723775362
F-10.397857586509311
F6.5559422021162099
tp21
sS'tag_11'
p22
(F-35.450636314143161
F4.5029007638323764
F8.0992923496408622
tp23
sS'tag_39'
p24
(F16.691783755894988
F-1.0712668686157696
F-4.3201420552063414
tp25
sS'tag_8'
p26
(F49.511585945842171
F-0.77672522630752905
F9.1544811020840591
tp27
sS'tag_9'
p28
(F-17.512522043313588
F0.039818876117384328
F6.130745844570983
tp29
sS'tag_0'
p30
(F-49.796874939925367
F4.5713726364882694
F6.2604544709022303
tp31
sS'tag_1'
p32
(F49.480101964853482
F-5.757502788453583
F9.1030628358489984
tp33
sS'tag_2'
p34
(F-8.8642448177352478
F4.601177197310391
F4.9631416724558264
tp35
sS'tag_3'
p36
(F21.03958823470024
F4.2448556282209369
F3.7649251007230657
tp37
sS'tag_5'
p38
(F21.15552107118166
F-10.447701251904292
F5.2891098871033924
tp39
sS'tag_6'
p40
(F7.1402878594452162
F-10.286115254239235
F6.9870460026538499
tp41
sS'tag_7'
p42
(F-51.721535673112569
F-10.490468074042203
F14.72005549253146
tp43
sS'tag_23'
p44
(F-41.822843222675765
F-10.615865666072992
F22.020221064417704
tp45
sS'tag_22'
p46
(F-2.2844882112919223
F-6.3457642880128091
F0.53719146908419235
tp47
sS'tag_21'
p48
(F-50.399956417250827
F-5.7527654678465092
F13.173477805593157
tp49
s(dp50
g2
(F-0.68731416064478235
F0.70736579173888314
F-0.11201123009437265
F0.12118731611652626
tp51
sg4
(F0.7013556838450552
F0.7113859917541
F0.042721390603946301
F0.014319855416010876
tp52
sg6
(F-0.018565293808134653
F-0.47038411835570865
F0.0190505578589855
F0.88206076168810599
tp53
sg8
(F-0.23938708588697336
F0.65846558168960678
F0.66941343612644111
F0.24698694778085287
tp54
sg10
(F-0.0044536641922819356
F-0.69483350164007329
F-0.0049602262710330119
F0.71913974026554595
tp55
sg12
(F-0.015787817790343377
F-0.85900084465705329
F-0.0094191318825438911
F0.51164399111341763
tp56
sg14
(F0.19122372411626329
F-0.18725273806723067
F-0.66746039852058259
F0.69488597325617185
tp57
sg16
(F0.016321983317845064
F0.01174784095076002
F0.99978505143159968
F-0.0050430176959094511
tp58
sg18
(F0.019680217941230649
F0.96292510856499181
F0.014399211800238065
F-0.26866445060040317
tp59
sg20
(F-0.071864668469035331
F0.088995144309181234
F-0.69866804680851224
F0.70624237630150899
tp60
sg22
(F-0.0013498484751479078
F0.22664836715931125
F-0.0010155043537888877
F0.9739751867085833
tp61
sg24
(F0.043999194324634387
F0.69775662927168625
F-0.0076795847380346513
F0.71494110329764149
tp62
sg26
(F-0.59680023657364245
F0.63296261306389079
F0.34847994515938352
F-0.34892626142308136
tp63
sg28
(F-0.69901026682003176
F0.71050507135725061
F0.063566452521651967
F-0.050264267324102559
tp64
sg30
(F0.37072163899528815
F-0.37601147581710082
F-0.58422865527314105
F0.61632598094858082
tp65
sg32
(F0.8636834321809107
F-0.017929885634326473
F-0.50347289109181292
F-0.015636371477865837
tp66
sg34
(F0.72379118296534473
F0.68963641565277767
F-0.0068202596117833986
F-0.021941324619175973
tp67
sg36
(F-0.029293284965322904
F-0.16532872190517792
F-0.0018922757090304994
F0.98580157053120065
tp68
sg38
(F0.010782694516592251
F-0.13367697604095855
F0.0010100796459020234
F0.99096578110175726
tp69
sg40
(F0.71601205419831626
F0.69776411288436413
F0.021251470471258027
F-0.00059667094202353621
tp70
sg42
(F-0.0043343275203264198
F-0.47529456929866115
F-0.0035815078698849812
F0.8798087626305644
tp71
sg44
(F0.6663093961608062
F0.67224709786459724
F-0.22589151176311303
F-0.23040975004071318
tp72
sg46
(F-0.056726728188234737
F0.048656731899050835
F-0.69925883641155517
F0.71095125040351381
tp73
sg48
(F-0.34746428942738744
F-0.33401505263646186
F0.6252611587060366
F0.61380045258908589
tp74
sg8
t.