((dp1
S'tag_12'
p2
(F11.90938558826959
F-0.38734066719077087
F-15.279673222222831
tp3
sS'tag_11'
p4
(F18.314738901940533
F2.8987483271798569
F51.593173093976596
tp5
sS'tag_38'
p6
(F0.39276369789200971
F0.81593423418017363
F-6.9588360532070066
tp7
sS'tag_39'
p8
(F0.28469706431231123
F-0.44173471445715928
F0.37872815782381686
tp9
sS'tag_14'
p10
(F11.567509229992385
F4.6306532245207537
F-24.418415510772732
tp11
sS'tag_15'
p12
(F4.8061782763105994
F3.4331528369115736
F18.910641134141649
tp13
sS'tag_8'
p14
(F5.8135192954457109
F-0.049586822024019872
F-32.481145599318232
tp15
sS'tag_9'
p16
(F14.01016713583271
F-1.1538121282254774
F34.943252042298013
tp17
sS'tag_584'
p18
(F4.9084559396606355
F-0.68827885362990382
F18.80303453956941
tp19
sS'tag_2'
p20
(F10.905408381059534
F3.7011122281470454
F26.117079295024041
tp21
sS'tag_3'
p22
(F5.2508554624110557
F4.3027647074487438
F-3.5868045843124929
tp23
s(dp24
g2
(F0.54927419455485504
F-0.53406534930104288
F-0.45391189525762932
F0.4550121462287543
tp25
sg4
(F0.017672726346973859
F0.89342873179445004
F-0.010384679163640356
F0.44873704369741324
tp26
sg6
(F0.36561164064012042
F0.59546899987734836
F0.61596067863053083
F-0.36378185880349495
tp27
sg8
(F0.024519182344974653
F0.99944047295398653
F0.020917569042073696
F-0.0089446086563661192
tp28
sg10
(F-0.3759525277819743
F0.41466641273520904
F-0.57216875571598635
F0.59944505835487294
tp29
sg12
(F0.76785798381477499
F-0.0084567962625586024
F0.6404225713285655
F-0.013473285486123173
tp30
sg14
(F0.12850297162352128
F-0.13558152740567686
F-0.68484569684978935
F0.70433728228498216
tp31
sg16
(F0.42095221464159793
F-0.39860017330260378
F-0.58255159825904901
F0.56969357570302304
tp32
sg18
(F0.021009613693749034
F0.7664934744123848
F0.0075829319728374081
F0.64186357503628877
tp33
sg20
(F-0.43702139950111413
F-0.44616940044044739
F0.5638233731060146
F0.54041499463658016
tp34
sg22
(F0.020888624816513372
F0.63369728395343716
F0.01826188089832528
F0.7730833857801932
tp35
sg6
t.