((dp1
S'tag_29'
p2
(F8.6262952937481661
F-11.348342957868972
F9.6171510685556427
tp3
sS'tag_584'
p4
(F10.308752980342287
F-2.5744344330686824
F15.466411480429004
tp5
sS'tag_23'
p6
(F15.235230021155434
F1.0382082110528117
F24.260375435965152
tp7
sS'tag_22'
p8
(F20.766105495365778
F-11.079624386680759
F63.723391736211717
tp9
sS'tag_21'
p10
(F17.92526959828632
F-5.2985144065330765
F32.394941716891644
tp11
sS'tag_20'
p12
(F18.73791859915228
F4.0440099019317701
F-16.39174999300803
tp13
sS'tag_27'
p14
(F24.135042949872464
F-12.165597182231535
F45.6587191616062
tp15
sS'tag_26'
p16
(F22.034245358672447
F-15.335803940712761
F62.012805671085694
tp17
sS'tag_25'
p18
(F19.705343124349408
F10.695059669864545
F-25.543293823495098
tp19
sS'tag_24'
p20
(F20.341913236291344
F-6.2268868185092803
F64.760769824141647
tp21
sS'tag_28'
p22
(F14.288155964183312
F-3.8000487259944631
F-2.2928433218835282
tp23
sS'tag_0'
p24
(F2.6588222571422975
F0.24795598241581024
F-0.4464052383145426
tp25
sS'tag_30'
p26
(F29.232319118970839
F-19.355891482918317
F58.825871470951569
tp27
sS'tag_3'
p28
(F6.783654452405659
F0.91855051793025011
F-3.3290307929377017
tp29
sS'tag_4'
p30
(F5.3772140945661242
F-1.1063974386071136
F6.6452278987520845
tp31
s(dp32
g2
(F0.069948255327606318
F0.74737535216749951
F0.096456703363397178
F0.65363095774710367
tp33
sg4
(F0.054277956844144555
F0.73467442161632424
F0.085002195333631222
F0.67088152785123534
tp34
sg6
(F0.076097975490805672
F-0.64900791610031794
F-0.033160827418533115
F0.75623950074711233
tp35
sg8
(F0.080819041047327289
F0.19177827575277107
F0.060696976594089729
F0.97621987922077325
tp36
sg10
(F0.086611332498887639
F0.13722241994056056
F0.041557088537078388
F0.98587093117747671
tp37
sg12
(F0.05140860842360695
F-0.82852556754065165
F-0.074829185786868951
F0.55254242539904874
tp38
sg14
(F0.068236402401729596
F-0.494513021050136
F-0.016043873526635593
F0.86633899803794956
tp39
sg16
(F0.08657691618540439
F0.31162595403504351
F0.073842077605839065
F0.9433668692138959
tp40
sg18
(F0.079749469510417823
F0.51046149851113332
F0.064021997840167516
F0.85379755471840557
tp41
sg20
(F0.18738629838101342
F0.35076870122510723
F0.047298670353043991
F0.9163026406175786
tp42
sg22
(F0.074585837655470777
F-0.76924305720981412
F-0.076747763338754785
F0.62993003784406798
tp43
sg24
(F-0.61866631541373041
F-0.15919633476566489
F-0.16069527218018334
F0.75238656730999254
tp44
sg26
(F0.093910454039092886
F0.2883660092555968
F0.07042491772641786
F0.95029795448132992
tp45
sg28
(F0.090732160890188068
F-0.030925290220197119
F0.029239176379936494
F0.99496551295490465
tp46
sg30
(F0.034249204815636737
F0.65871229056303748
F0.1071440119494389
F0.74393902366663867
tp47
sg24
t.
