((dp1
S'tag_1'
p2
(F50.90902540269802
F-5.8484612624562899
F9.5843386740568057
tp3
sS'tag_584'
p4
(F12.876094784920745
F-0.36072951273154974
F-10.298275588248616
tp5
s(dp6
g2
(F0.87145787019015353
F-0.022634913632915536
F-0.48993751488516318
F0.0031737480401736727
tp7
sg4
(F-0.09753848622660044
F0.70067473708223005
F0.69859133571750665
F0.10729073669148222
tp8
sg4
t.