(lp0
(F587.0
F21.6828
F19.8057
F-1.22265
tp1
a(F611.0
F21.1902
F18.7038
F-1.23291
tp2
a(F621.0
F20.6527
F17.7565
F-1.24498
tp3
a(F679.0
F22.5618
F20.5746
F-1.29032
tp4
a(F689.0
F23.0776
F21.7148
F-1.30751
tp5
a(F699.0
F23.6394
F22.7353
F-1.26192
tp6
a(F707.0
F24.1572
F23.626
F-1.2881
tp7
a(F717.0
F24.8538
F24.6686
F-1.2366
tp8
a(F727.0
F25.6022
F25.6284
F-1.20001
tp9
a(F737.0
F26.2598
F26.6248
F-1.19661
tp10
a(F747.0
F26.8286
F27.5674
F-1.2221
tp11
a(F757.0
F27.4164
F28.5355
F-1.16223
tp12
a(F767.0
F27.9395
F29.5468
F-1.17056
tp13
a(F779.0
F28.5568
F30.5296
F-1.16942
tp14
a(F791.0
F29.1465
F31.5619
F-1.15652
tp15
a(F801.0
F29.4862
F32.506
F-1.16598
tp16
a(F819.0
F28.8833
F33.3156
F-1.13581
tp17
a(F843.0
F29.9923
F33.7649
F-1.2196
tp18
a(F853.0
F30.7494
F34.4316
F-1.2252
tp19
a(F861.0
F31.405
F35.206
F-1.23905
tp20
a(F869.0
F31.975
F36.0448
F-1.17881
tp21
a(F877.0
F32.4778
F36.9722
F-1.18896
tp22
a(F885.0
F33.0341
F38.0741
F-1.21694
tp23
a(F891.0
F33.7026
F39.2236
F-1.18136
tp24
a(F899.0
F34.3067
F40.3567
F-1.1742
tp25
a(F905.0
F34.8449
F41.3854
F-1.17367
tp26
a(F913.0
F35.4879
F42.6025
F-1.15846
tp27
a(F919.0
F36.0271
F43.6819
F-1.13723
tp28
a(F925.0
F36.6111
F44.939
F-1.11161
tp29
a(F931.0
F37.0904
F46.0083
F-1.09634
tp30
a(F937.0
F37.6224
F47.2154
F-1.06996
tp31
a(F945.0
F38.092
F48.4403
F-1.0527
tp32
a(F953.0
F38.4077
F49.4625
F-1.03927
tp33
a(F959.0
F38.7104
F50.4456
F-1.00455
tp34
a(F967.0
F39.0267
F51.5956
F-0.962699
tp35
a(F975.0
F39.3473
F52.6014
F-1.00668
tp36
a(F985.0
F39.6361
F53.8766
F-0.980223
tp37
a(F993.0
F39.9388
F54.9625
F-0.963043
tp38
a(F1001.0
F40.2199
F56.0683
F-0.92645
tp39
a(F1011.0
F40.5466
F57.3483
F-0.941952
tp40
a(F1021.0
F40.9003
F58.4314
F-0.92231
tp41
a(F1031.0
F41.3741
F59.4707
F-0.931972
tp42
a(F1039.0
F41.9491
F60.3709
F-0.921032
tp43
a(F1047.0
F42.7898
F60.9467
F-0.942032
tp44
a(F1059.0
F43.8476
F61.0903
F-0.942936
tp45
a(F1069.0
F44.9576
F60.9275
F-0.919019
tp46
a(F1079.0
F46.1222
F60.6244
F-0.944013
tp47
a(F1091.0
F47.1013
F60.1458
F-0.936744
tp48
a(F1103.0
F47.9809
F59.5622
F-0.911485
tp49
a(F1115.0
F48.814
F58.9966
F-0.917739
tp50
a(F1143.0
F49.6739
F58.3212
F-0.94624
tp51
a(F1169.0
F49.6999
F57.2683
F-0.944504
tp52
a(F1223.0
F50.7838
F58.0839
F-0.974189
tp53
a(F1245.0
F51.7348
F57.7771
F-0.690646
tp54
a(F1273.0
F52.4988
F57.3245
F-0.126423
tp55
a(F1297.0
F53.2492
F56.9001
F0.4166
tp56
a(F1323.0
F54.0928
F56.4852
F0.944183
tp57
a(F1349.0
F54.822
F56.0009
F1.51381
tp58
a(F1387.0
F54.9122
F54.9761
F1.60348
tp59
a(F1427.0
F54.4431
F54.0823
F1.63578
tp60
a(F1449.0
F53.4942
F54.3722
F1.79616
tp61
a(F1473.0
F52.591
F54.4482
F2.36085
tp62
a(F1495.0
F51.7247
F54.6002
F2.90689
tp63
a(F1519.0
F50.8335
F54.8872
F3.49076
tp64
a(F1543.0
F50.0479
F55.1746
F4.06487
tp65
a(F1621.0
F49.4059
F55.9477
F4.1962
tp66
a(F1635.0
F49.3106
F56.9548
F4.19938
tp67
a(F1683.0
F48.726
F57.8678
F4.29602
tp68
a(F1693.0
F47.5614
F57.8176
F4.30933
tp69
a(F1703.0
F46.5951
F57.1787
F4.33073
tp70
a(F1715.0
F45.6846
F56.581
F4.3246
tp71
a(F1725.0
F44.6576
F56.0317
F4.33158
tp72
a(F1735.0
F43.6562
F55.717
F4.35944
tp73
a(F1745.0
F42.5099
F55.6616
F4.36899
tp74
a(F1757.0
F41.2893
F55.5332
F4.39224
tp75
a(F1765.0
F40.3087
F55.3121
F4.43155
tp76
a(F1777.0
F39.5855
F54.531
F4.41192
tp77
a(F1787.0
F39.2578
F53.31
F4.40402
tp78
a(F1797.0
F39.0985
F52.2694
F4.35448
tp79
a(F1809.0
F38.9544
F51.1367
F4.33854
tp80
a(F1817.0
F38.7909
F50.1365
F4.26732
tp81
a(F1827.0
F38.5999
F49.0639
F4.28604
tp82
a(F1839.0
F38.4458
F47.8813
F4.25998
tp83
a(F1849.0
F38.3331
F46.8366
F4.2223
tp84
a(F1875.0
F37.969
F45.6903
F4.20348
tp85
a(F1885.0
F37.5629
F44.5501
F4.20177
tp86
a(F1895.0
F37.2037
F43.4281
F4.1558
tp87
a(F1903.0
F36.8352
F42.4383
F4.13544
tp88
a(F1911.0
F36.4471
F41.1755
F4.09483
tp89
a(F1919.0
F36.1161
F40.2088
F4.04027
tp90
a(F1927.0
F35.7417
F39.1631
F3.96709
tp91
a(F1933.0
F35.3328
F38.1159
F3.87309
tp92
a(F1939.0
F35.0293
F37.1618
F3.73441
tp93
a(F1945.0
F34.5237
F36.0001
F3.73473
tp94
a(F1949.0
F34.1093
F35.0837
F3.72633
tp95
a(F1955.0
F33.5789
F33.8138
F3.60381
tp96
a(F1961.0
F33.0039
F32.7485
F3.52124
tp97
a(F1965.0
F32.4708
F31.6226
F3.46747
tp98
a(F1971.0
F31.8807
F30.4853
F3.41347
tp99
a(F1977.0
F31.1099
F29.1552
F3.3822
tp100
a(F1983.0
F30.3404
F27.7902
F3.28713
tp101
a(F1989.0
F29.4529
F26.4316
F3.27846
tp102
a(F1995.0
F28.5748
F25.3097
F3.18871
tp103
a(F2001.0
F27.8269
F24.2511
F3.15938
tp104
a(F2009.0
F26.9392
F23.3294
F3.12256
tp105
a(F2019.0
F26.0546
F22.764
F3.16406
tp106
a(F2035.0
F24.9898
F22.6243
F3.1888
tp107
a(F2071.0
F25.2922
F21.552
F3.23385
tp108
a(F2083.0
F24.9843
F20.4567
F3.21887
tp109
a(F2091.0
F24.3163
F19.5102
F3.26173
tp110
a(F2101.0
F23.6395
F18.5457
F3.23074
tp111
a(F2107.0
F23.1135
F17.6682
F3.22337
tp112
a(F2117.0
F22.4836
F16.5883
F3.15135
tp113
a(F2129.0
F22.0891
F15.5124
F3.15616
tp114
a(F2153.0
F21.47
F14.677
F3.17996
tp115
a(F2163.0
F20.4121
F14.0577
F3.08574
tp116
a(F2169.0
F19.2418
F13.2049
F3.04966
tp117
a(F2175.0
F18.3207
F12.442
F3.03734
tp118
a(F2179.0
F17.2286
F11.7371
F3.06148
tp119
a(F2183.0
F16.1511
F10.933
F3.07789
tp120
a(F2187.0
F15.2803
F10.3154
F3.08297
tp121
a(F2191.0
F14.0356
F9.51424
F3.09751
tp122
a(F2195.0
F12.7396
F8.68336
F3.1581
tp123
a(F2199.0
F11.7623
F8.17368
F3.20972
tp124
a(F2203.0
F10.7468
F7.57273
F3.29212
tp125
a(F2207.0
F9.71154
F7.04562
F3.34693
tp126
a(F2211.0
F8.30534
F6.23707
F3.40544
tp127
a(F2215.0
F7.35812
F5.73453
F3.43004
tp128
a(F2219.0
F6.11072
F5.00336
F3.39258
tp129
a(F2225.0
F4.7848
F4.23221
F3.3572
tp130
a(F2233.0
F3.89575
F3.61896
F3.30614
tp131
a(F2261.0
F2.82207
F3.01502
F3.26175
tp132
a(F2271.0
F1.56785
F2.59678
F3.24601
tp133
a(F2279.0
F0.608244
F2.21066
F3.13921
tp134
a(F2283.0
F-0.339676
F1.77003
F3.22495
tp135
a(F2287.0
F-1.38867
F1.39423
F3.19341
tp136
a(F2291.0
F-2.57569
F0.91801
F3.16842
tp137
a(F2295.0
F-3.86736
F0.493719
F3.1651
tp138
a(F2299.0
F-4.87678
F0.104456
F3.17726
tp139
a(F2303.0
F-5.93947
F-0.167009
F3.22621
tp140
a(F2309.0
F-7.42553
F-0.631256
F3.29229
tp141
a(F2313.0
F-8.93733
F-1.01373
F3.3767
tp142
a(F2317.0
F-10.4802
F-1.32729
F3.45824
tp143
a(F2323.0
F-12.1079
F-1.70808
F3.50661
tp144
a(F2327.0
F-13.1985
F-1.86329
F3.54326
tp145
a(F2331.0
F-14.2982
F-2.09006
F3.5998
tp146
a(F2335.0
F-15.615
F-2.26039
F3.61226
tp147
a(F2339.0
F-16.6089
F-2.42878
F3.58
tp148
a(F2347.0
F-17.6673
F-2.69379
F3.55044
tp149
a(F2373.0
F-18.8959
F-2.95679
F3.60028
tp150
a(F2383.0
F-19.7564
F-3.54843
F3.61425
tp151
a(F2391.0
F-20.113
F-4.58553
F3.61304
tp152
a(F2397.0
F-20.1842
F-5.59029
F3.61964
tp153
a(F2405.0
F-20.0745
F-6.78595
F3.68099
tp154
a(F2411.0
F-19.8673
F-7.85381
F3.69094
tp155
a(F2419.0
F-19.7092
F-8.90795
F3.70278
tp156
a(F2433.0
F-19.5132
F-9.89639
F3.74728
tp157
a(F2449.0
F-19.3912
F-11.0856
F3.74535
tp158
a(F2463.0
F-19.1362
F-12.224
F3.75516
tp159
a(F2475.0
F-18.7957
F-13.2018
F3.55238
tp160
a(F2487.0
F-18.638
F-14.1252
F2.98112
tp161
a(F2499.0
F-18.5005
F-15.1263
F2.37535
tp162
a(F2509.0
F-18.4086
F-15.988
F1.8415
tp163
a(F2523.0
F-18.5068
F-16.9159
F1.288
tp164
a(F2537.0
F-19.3963
F-17.6447
F1.23142
tp165
a(F2551.0
F-20.3585
F-17.1311
F1.266
tp166
a(F2563.0
F-20.7175
F-16.1684
F1.10333
tp167
a(F2575.0
F-20.849
F-15.2726
F0.558264
tp168
a(F2587.0
F-20.8628
F-14.3413
F-0.0335162
tp169
a(F2601.0
F-20.7818
F-13.431
F-0.590273
tp170
a(F2631.0
F-20.6636
F-12.4656
F-0.868667
tp171
a(F2651.0
F-19.5439
F-12.2584
F-0.911394
tp172
a(F2669.0
F-18.9275
F-13.0943
F-0.97356
tp173
a(F2683.0
F-18.7324
F-14.0675
F-1.5584
tp174
a(F2695.0
F-18.5687
F-15.0305
F-2.19171
tp175
a(F2707.0
F-18.4794
F-15.9564
F-2.76554
tp176
a(F2721.0
F-18.4407
F-16.8947
F-3.36428
tp177
a(F2735.0
F-19.0778
F-17.7254
F-3.5169
tp178
a(F2749.0
F-20.0535
F-17.3734
F-3.53034
tp179
a(F2761.0
F-20.4533
F-16.3265
F-3.70948
tp180
a(F2775.0
F-20.6626
F-15.3954
F-4.3193
tp181
a(F2789.0
F-20.7788
F-14.5366
F-4.88827
tp182
a(F2807.0
F-20.8007
F-13.6956
F-5.43436
tp183
a(F2851.0
F-21.2001
F-12.7666
F-5.73046
tp184
a(F2865.0
F-21.1259
F-11.7642
F-5.7096
tp185
a(F2883.0
F-20.099
F-11.4915
F-5.73943
tp186
a(F2901.0
F-19.4881
F-12.3517
F-5.72947
tp187
a(F2915.0
F-19.1732
F-13.3117
F-6.31061
tp188
a(F2927.0
F-18.9868
F-14.272
F-6.93835
tp189
a(F2937.0
F-18.8421
F-15.1219
F-7.48278
tp190
a(F2949.0
F-18.7125
F-16.0188
F-8.02543
tp191
a(F2961.0
F-18.6956
F-17.0261
F-8.61649
tp192
a(F2971.0
F-19.2538
F-17.9067
F-8.85718
tp193
a(F2987.0
F-20.306
F-17.6087
F-8.87509
tp194
a(F2999.0
F-20.6822
F-16.5913
F-8.88785
tp195
a(F3011.0
F-20.905
F-15.5986
F-9.04238
tp196
a(F3027.0
F-21.0872
F-14.6972
F-9.61724
tp197
a(F3045.0
F-21.2289
F-13.8617
F-10.1938
tp198
a(F3067.0
F-21.287
F-12.8703
F-10.554
tp199
a(F3109.0
F-21.1836
F-11.8534
F-10.5051
tp200
a(F3129.0
F-20.9258
F-10.8735
F-10.4826
tp201
a(F3163.0
F-20.542
F-9.8445
F-10.4989
tp202
a(F3173.0
F-20.8127
F-8.87418
F-10.4757
tp203
a(F3183.0
F-21.204
F-7.86979
F-10.4225
tp204
a(F3193.0
F-21.6405
F-6.66304
F-10.3902
tp205
a(F3201.0
F-22.0394
F-5.67057
F-10.351
tp206
a(F3209.0
F-22.3623
F-4.62321
F-10.3763
tp207
a(F3219.0
F-22.4338
F-3.60491
F-10.3444
tp208
a(F3229.0
F-22.265
F-2.60725
F-10.3565
tp209
a(F3259.0
F-21.2569
F-2.18138
F-10.4148
tp210
a(F3267.0
F-19.859
F-2.07932
F-10.4504
tp211
a(F3273.0
F-18.8859
F-1.83525
F-10.4115
tp212
a(F3279.0
F-17.5743
F-1.49358
F-10.3885
tp213
a(F3285.0
F-16.173
F-1.05482
F-10.3785
tp214
a(F3291.0
F-14.7106
F-0.536076
F-10.3776
tp215
a(F3297.0
F-13.1439
F0.0206579
F-10.3615
tp216
a(F3303.0
F-11.8515
F0.500645
F-10.3384
tp217
a(F3307.0
F-10.8724
F0.933274
F-10.3376
tp218
a(F3311.0
F-9.63462
F1.49113
F-10.3415
tp219
a(F3315.0
F-8.39874
F2.1041
F-10.3447
tp220
a(F3319.0
F-7.25606
F2.62867
F-10.3237
tp221
a(F3323.0
F-6.03193
F3.27031
F-10.2944
tp222
a(F3327.0
F-4.90322
F3.8448
F-10.3097
tp223
a(F3333.0
F-3.80282
F4.50374
F-10.3549
tp224
a(F3337.0
F-2.90237
F4.95767
F-10.3576
tp225
a(F3343.0
F-2.02287
F5.43507
F-10.3009
tp226
a(F3355.0
F-1.05149
F5.99592
F-10.3028
tp227
a(F3383.0
F-0.0988161
F6.7082
F-10.3299
tp228
a(F3393.0
F0.797096
F7.40999
F-10.3847
tp229
a(F3399.0
F1.61839
F7.99884
F-10.4515
tp230
a(F3403.0
F2.46326
F8.62722
F-10.3365
tp231
a(F3409.0
F3.65738
F9.47181
F-10.3768
tp232
a(F3413.0
F4.69312
F10.3093
F-10.397
tp233
a(F3417.0
F5.54708
F10.9149
F-10.3827
tp234
a(F3421.0
F6.36079
F11.669
F-10.3476
tp235
a(F3425.0
F7.17557
F12.3203
F-10.3159
tp236
a(F3429.0
F7.93027
F13.0842
F-10.2976
tp237
a(F3435.0
F9.01823
F14.1548
F-10.3452
tp238
a(F3439.0
F9.66293
F14.9893
F-10.38
tp239
a(F3451.0
F9.79019
F15.9925
F-10.3815
tp240
a(F3517.0
F8.79724
F16.3158
F-10.4519
tp241
a(F3563.0
F10.2202
F16.9809
F-10.489
tp242
a(F3573.0
F11.4248
F17.3019
F-10.4891
tp243
a(F3581.0
F12.5505
F17.641
F-10.5109
tp244
a(F3589.0
F13.8535
F18.1706
F-10.5599
tp245
a(F3595.0
F14.9067
F18.8002
F-10.595
tp246
a(F3601.0
F16.0305
F19.6493
F-10.6004
tp247
a(F3607.0
F17.2601
F20.5764
F-10.5774
tp248
a(F3613.0
F18.528
F21.6398
F-10.5871
tp249
a(F3617.0
F19.324
F22.4083
F-10.5917
tp250
a(F3623.0
F20.4028
F23.3577
F-10.63
tp251
a(F3627.0
F21.4999
F24.4316
F-10.6223
tp252
a(F3631.0
F22.3955
F25.2031
F-10.6259
tp253
a(F3635.0
F23.5014
F26.3211
F-10.6411
tp254
a(F3639.0
F24.6042
F27.4473
F-10.5924
tp255
a(F3643.0
F25.3926
F28.2799
F-10.6032
tp256
a(F3647.0
F26.3088
F29.2997
F-10.6709
tp257
a(F3653.0
F27.0619
F30.1116
F-10.6857
tp258
a(F3659.0
F27.9066
F31.0344
F-10.6835
tp259
a(F3689.0
F28.5881
F31.7949
F-10.7167
tp260
a(F3697.0
F29.0292
F32.7026
F-10.7627
tp261
a(F3705.0
F29.5872
F33.8773
F-10.8632
tp262
a(F3711.0
F30.1145
F34.7438
F-10.8649
tp263
a(F3715.0
F30.7554
F35.6234
F-10.8741
tp264
a(F3721.0
F31.5296
F37.0207
F-10.8437
tp265
a(F3725.0
F32.0656
F37.8922
F-10.8008
tp266
a(F3729.0
F32.6963
F39.1932
F-10.8126
tp267
a(F3733.0
F33.4003
F40.5172
F-10.7847
tp268
a(F3737.0
F33.8766
F41.5664
F-10.792
tp269
a(F3741.0
F34.4783
F42.899
F-10.7743
tp270
a(F3745.0
F34.9334
F43.9468
F-10.7969
tp271
a(F3751.0
F35.4954
F45.4365
F-10.7782
tp272
a(F3757.0
F36.1047
F46.9058
F-10.7365
tp273
a(F3761.0
F36.4888
F48.0297
F-10.7644
tp274
a(F3765.0
F36.9933
F49.4251
F-10.7754
tp275
a(F3771.0
F37.4768
F50.889
F-10.7625
tp276
a(F3775.0
F37.8536
F51.8982
F-10.7427
tp277
a(F3779.0
F38.1095
F52.9167
F-10.7605
tp278
a(F3783.0
F38.4683
F54.1254
F-10.7771
tp279
a(F3789.0
F38.7823
F55.3617
F-10.8097
tp280
a(F3797.0
F38.9139
F56.4771
F-10.774
tp281
a(F3809.0
F38.6482
F57.502
F-10.7684
tp282
a(F3845.0
F38.1847
F58.5098
F-10.7725
tp283
a(F3855.0
F38.8528
F59.3075
F-10.8029
tp284
a(F3865.0
F39.7613
F60.0464
F-10.7514
tp285
a(F3875.0
F40.6542
F60.6528
F-10.7695
tp286
a(F3887.0
F41.2631
F61.6618
F-10.8005
tp287
a(F3897.0
F41.8665
F62.5357
F-10.8078
tp288
a(F3907.0
F43.0009
F62.8512
F-10.8011
tp289
a(F3917.0
F44.2982
F62.8607
F-10.8089
tp290
a(F3925.0
F45.4891
F62.7005
F-10.7867
tp291
a(F3933.0
F46.5772
F62.529
F-10.814
tp292
a(F3943.0
F47.7493
F62.2949
F-10.8185
tp293
a(F3971.0
F48.8354
F62.2171
F-10.8329
tp294
a(F3987.0
F49.9714
F62.0557
F-10.8064
tp295
a(F4001.0
F50.4706
F61.0121
F-10.8099
tp296
a(F4013.0
F50.3186
F59.9908
F-10.8193
tp297
a(F4057.0
F50.6664
F59.0317
F-10.8628
tp298
a(F4085.0
F51.6975
F58.7427
F-10.6983
tp299
a(F4101.0
F52.7435
F58.5378
F-10.0867
tp300
a(F4119.0
F53.6495
F58.1645
F-9.48249
tp301
a(F4139.0
F54.4834
F57.7935
F-8.89904
tp302
a(F4163.0
F55.3294
F57.501
F-8.35348
tp303
a(F4191.0
F55.5245
F56.4768
F-8.3403
tp304
a(F4211.0
F55.045
F55.5972
F-8.28801
tp305
a(F4233.0
F54.1327
F56.067
F-8.18521
tp306
a(F4261.0
F53.1897
F56.0002
F-7.63908
tp307
a(F4281.0
F52.1537
F56.3505
F-7.13968
tp308
a(F4299.0
F51.3274
F56.5523
F-6.60435
tp309
a(F4315.0
F50.5873
F56.9525
F-6.029
tp310
a(F4355.0
F50.1168
F57.8229
F-5.87038
tp311
a(F4371.0
F50.36
F58.8089
F-5.93993
tp312
a(F4387.0
F51.3709
F58.6271
F-5.94538
tp313
a(F4399.0
F52.3962
F58.2911
F-5.5302
tp314
a(F4415.0
F53.2932
F57.8896
F-4.95406
tp315
a(F4431.0
F54.2012
F57.4484
F-4.31454
tp316
a(F4447.0
F55.0089
F57.2468
F-3.6845
tp317
a(F4471.0
F55.5997
F56.3972
F-3.47953
tp318
a(F4487.0
F55.261
F55.4517
F-3.51229
tp319
a(F4503.0
F54.269
F55.5005
F-3.34087
tp320
a(F4515.0
F53.37
F55.6484
F-2.9206
tp321
a(F4529.0
F52.4294
F55.8364
F-2.45609
tp322
a(F4547.0
F51.5195
F56.0845
F-1.92311
tp323
a(F4561.0
F50.7924
F56.5412
F-1.24392
tp324
a(F4905.0
F49.4546
F59.3448
F-5.92721
tp325
a(F4913.0
F48.4908
F59.8569
F-5.95514
tp326
a(F4921.0
F47.4842
F60.2437
F-5.9572
tp327
a(F4929.0
F46.3074
F60.6431
F-6.02654
tp328
a(F4935.0
F45.343
F60.9399
F-6.0559
tp329
a(F4943.0
F44.3405
F61.3133
F-6.09657
tp330
a(F4951.0
F43.0542
F61.4501
F-6.11977
tp331
a(F4957.0
F42.115
F60.9763
F-6.16623
tp332
a(F4963.0
F41.5151
F60.1299
F-6.25902
tp333
a(F4969.0
F40.9161
F58.9545
F-6.19933
tp334
a(F4973.0
F40.4998
F57.8406
F-6.15247
tp335
a(F4979.0
F39.9126
F56.3005
F-6.08047
tp336
a(F4985.0
F39.3992
F55.0506
F-6.02671
tp337
a(F4989.0
F38.8505
F53.7409
F-6.01286
tp338
a(F4995.0
F38.1161
F52.2442
F-5.99533
tp339
a(F5001.0
F37.3936
F50.8914
F-5.99099
tp340
a(F5007.0
F36.7145
F49.6846
F-5.99012
tp341
a(F5015.0
F36.172
F48.7733
F-5.9895
tp342
a(F5025.0
F35.5484
F47.8447
F-5.95057
tp343
a(F5057.0
F34.6282
F48.2934
F-5.98755
tp344
a(F5075.0
F34.8651
F49.2607
F-6.18843
tp345
a(F5159.0
F35.2993
F50.082
F-6.64195
tp346
a(F5171.0
F35.5909
F50.9785
F-7.26487
tp347
a(F5185.0
F35.8946
F51.8278
F-7.83473
tp348
a(F5201.0
F36.1736
F52.7414
F-8.37525
tp349
a(F5217.0
F36.594
F53.6766
F-8.46303
tp350
a(F5231.0
F37.0518
F54.5969
F-8.99625
tp351
a(F5245.0
F37.3409
F55.4525
F-9.52362
tp352
a(F5259.0
F37.6383
F56.3601
F-10.1196
tp353
a(F5405.0
F35.001
F46.9286
F-6.00959
tp354
a(F5415.0
F35.3604
F45.8489
F-6.02026
tp355
a(F5425.0
F35.2769
F44.7991
F-6.07548
tp356
a(F5433.0
F34.9786
F43.8213
F-6.0827
tp357
a(F5439.0
F34.6108
F42.8666
F-6.11709
tp358
a(F5445.0
F33.983
F41.566
F-6.02981
tp359
a(F5451.0
F33.2972
F40.4082
F-6.06689
tp360
a(F5455.0
F32.741
F39.39
F-6.05942
tp361
a(F5461.0
F31.9644
F38.0836
F-5.9982
tp362
a(F5465.0
F31.2822
F37.0689
F-6.01913
tp363
a(F5471.0
F30.4147
F35.7745
F-5.96721
tp364
a(F5475.0
F29.79
F34.9046
F-5.96727
tp365
a(F5479.0
F29.0547
F33.831
F-5.91252
tp366
a(F5483.0
F28.4329
F33.0406
F-5.88288
tp367
a(F5487.0
F27.6531
F32.0288
F-5.91465
tp368
a(F5491.0
F26.7651
F30.9397
F-5.88314
tp369
a(F5497.0
F25.7266
F29.6876
F-5.86608
tp370
a(F5501.0
F24.8423
F28.5479
F-5.84211
tp371
a(F5505.0
F24.1747
F27.689
F-5.82457
tp372
a(F5509.0
F23.3346
F26.5888
F-5.76856
tp373
a(F5515.0
F22.453
F25.4889
F-5.71803
tp374
a(F5521.0
F21.6401
F24.5079
F-5.68734
tp375
a(F5525.0
F21.0309
F23.6879
F-5.66295
tp376
a(F5531.0
F20.276
F22.8428
F-5.60323
tp377
a(F5537.0
F19.6311
F21.976
F-5.63185
tp378
a(F5543.0
F18.969
F21.1503
F-5.66498
tp379
a(F5551.0
F18.4383
F20.2954
F-5.68779
tp380
a(F5563.0
F18.0577
F19.363
F-5.74253
tp381
a(F5597.0
F17.4437
F18.4014
F-5.74909
tp382
a(F5607.0
F16.4964
F17.5664
F-5.78741
tp383
a(F5615.0
F15.684
F16.8384
F-5.79106
tp384
a(F5625.0
F14.7286
F16.0333
F-5.74688
tp385
a(F5631.0
F13.9098
F15.3244
F-5.78265
tp386
a(F5637.0
F12.7487
F14.3388
F-5.73969
tp387
a(F5643.0
F11.532
F13.5029
F-5.70176
tp388
a(F5649.0
F10.2663
F12.612
F-5.64898
tp389
a(F5653.0
F9.25005
F11.8207
F-5.61682
tp390
a(F5657.0
F8.39339
F11.2696
F-5.61378
tp391
a(F5661.0
F7.28396
F10.4656
F-5.6227
tp392
a(F5667.0
F6.20258
F9.69481
F-5.58062
tp393
a(F5671.0
F5.25006
F8.98688
F-5.53624
tp394
a(F5675.0
F4.29313
F8.37294
F-5.55414
tp395
a(F5681.0
F3.38484
F7.94779
F-5.59809
tp396
a(F5701.0
F2.41634
F8.29925
F-5.58216
tp397
a(F5803.0
F1.75008
F9.06123
F-5.71615
tp398
a(F5869.0
F1.6133
F7.65269
F-5.69525
tp399
a(F5881.0
F1.43769
F6.49793
F-5.77095
tp400
a(F5891.0
F0.452043
F5.71976
F-5.80242
tp401
a(F5897.0
F-0.557401
F5.17701
F-5.75154
tp402
a(F5903.0
F-1.71596
F4.67057
F-5.80053
tp403
a(F5909.0
F-2.82676
F4.12082
F-5.81307
tp404
a(F5915.0
F-4.0741
F3.62373
F-5.79162
tp405
a(F5919.0
F-5.04656
F3.16518
F-5.76
tp406
a(F5923.0
F-6.43398
F2.50199
F-5.72553
tp407
a(F5927.0
F-7.47533
F2.01159
F-5.7559
tp408
a(F5931.0
F-8.50703
F1.55054
F-5.74221
tp409
a(F5935.0
F-9.96775
F0.85509
F-5.73939
tp410
a(F5939.0
F-11.5448
F0.156445
F-5.73886
tp411
a(F5943.0
F-12.6901
F-0.297215
F-5.73704
tp412
a(F5947.0
F-13.879
F-0.709966
F-5.72561
tp413
a(F5951.0
F-15.4713
F-1.26177
F-5.70317
tp414
a(F5955.0
F-16.5753
F-1.58463
F-5.69609
tp415
a(F5961.0
F-18.0495
F-2.06373
F-5.65851
tp416
a(F5965.0
F-19.6475
F-2.68567
F-5.65373
tp417
a(F5969.0
F-20.6576
F-3.1565
F-5.63655
tp418
a(F5977.0
F-21.3607
F-4.33491
F-5.69207
tp419
a(F5983.0
F-21.4253
F-5.39049
F-5.66931
tp420
a(F5989.0
F-21.2561
F-6.65071
F-5.66369
tp421
a(F5995.0
F-20.9394
F-7.89681
F-5.62729
tp422
a(F6003.0
F-20.6816
F-8.98181
F-5.60846
tp423
a(F6015.0
F-20.4907
F-10.0405
F-5.66026
tp424
a(F6515.0
F34.0083
F46.5443
F-5.97687
tp425
a(F6537.0
F33.6554
F45.6047
F-5.98617
tp426
a(F6549.0
F33.3426
F44.5838
F-6.00594
tp427
a(F6563.0
F33.1333
F43.6047
F-5.43487
tp428
a(F6583.0
F32.8213
F42.8741
F-4.81961
tp429
a(F6605.0
F32.5006
F41.9059
F-4.33979
tp430
a(F6625.0
F32.3038
F41.05
F-3.70794
tp431
a(F6643.0
F31.9716
F40.1051
F-3.53038
tp432
a(F6657.0
F31.5675
F39.0886
F-3.2115
tp433
a(F6671.0
F31.2673
F38.2996
F-2.62313
tp434
a(F6689.0
F30.9194
F37.3883
F-2.14157
tp435
a(F6705.0
F30.5535
F36.6187
F-1.52125
tp436
a(F6719.0
F30.1558
F35.6691
F-1.16112
tp437
a(F6733.0
F29.2396
F34.987
F-1.13534
tp438
a(F6797.0
F30.1542
F31.5899
F-1.14355
tp439
a(F6893.0
F19.927
F17.0385
F-1.28422
tp440
a(F6901.0
F19.0353
F16.4628
F-1.20179
tp441
a(F6907.0
F17.6674
F15.7374
F-1.28714
tp442
a(F6913.0
F16.4136
F15.1104
F-1.25181
tp443
a(F6917.0
F15.3015
F14.4662
F-1.22401
tp444
a(F6921.0
F14.4917
F13.7748
F-1.14568
tp445
a(F6925.0
F13.3061
F12.8948
F-1.05418
tp446
a(F6929.0
F12.387
F12.1004
F-1.03894
tp447
a(F6933.0
F11.0663
F11.0937
F-0.967801
tp448
a(F6939.0
F9.73753
F10.0679
F-0.947357
tp449
a(F6943.0
F8.38673
F9.06445
F-0.863274
tp450
a(F6947.0
F7.08769
F8.16564
F-0.819882
tp451
a(F6951.0
F6.19843
F7.47757
F-0.786255
tp452
a(F6955.0
F5.21706
F6.63351
F-0.844061
tp453
a(F6961.0
F4.82713
F5.48565
F-0.835607
tp454
a(F6969.0
F5.32445
F4.55967
F-0.785038
tp455
a(F6977.0
F6.10422
F3.69452
F-0.811093
tp456
a(F6989.0
F6.96305
F2.84102
F-0.799626
tp457
a(F7001.0
F8.00047
F2.35642
F-0.799352
tp458
a(F7071.0
F3.81088
F4.68326
F-0.88038
tp459
a(F7075.0
F2.67051
F4.85375
F-0.910196
tp460
a(F7079.0
F1.33506
F4.65115
F-0.884083
tp461
a(F7083.0
F-0.0264567
F4.19636
F-0.906584
tp462
a(F7089.0
F-1.41047
F3.48841
F-0.847041
tp463
a(F7093.0
F-2.47424
F2.92196
F-0.836036
tp464
a(F7097.0
F-3.50852
F2.34822
F-0.886039
tp465
a(F7101.0
F-4.92633
F1.72362
F-0.91323
tp466
a(F7105.0
F-6.2367
F1.25185
F-0.96528
tp467
a(F7109.0
F-7.43948
F0.964981
F-0.966434
tp468
a(F7115.0
F-8.65987
F1.20321
F-0.963062
tp469
a(F7125.0
F-9.70612
F1.71322
F-0.945416
tp470
a(F7255.0
F-10.7017
F1.40732
F-0.983204
tp471
a(F7267.0
F-11.6157
F1.12658
F-0.614831
tp472
a(F7277.0
F-12.5449
F0.848966
F-0.0102033
tp473
a(F7287.0
F-13.5346
F0.547613
F0.659603
tp474
a(F7297.0
F-14.6863
F0.223276
F1.07945
tp475
a(F7305.0
F-15.8768
F-0.097739
F1.46134
tp476
a(F7313.0
F-16.778
F-0.301222
F2.05069
tp477
a(F7323.0
F-17.8736
F-0.521121
F2.77117
tp478
a(F7331.0
F-18.8639
F-0.731657
F3.53613
tp479
a(F7345.0
F-19.5276
F-1.50955
F3.6735
tp480
a(F7633.0
F24.9604
F23.6626
F3.15048
tp481
a(F7647.0
F25.7213
F24.3329
F2.75799
tp482
a(F7659.0
F26.1456
F25.2407
F2.17343
tp483
a(F7669.0
F26.5736
F26.0206
F1.64107
tp484
a(F7679.0
F26.9168
F26.9297
F1.05463
tp485
a(F7687.0
F27.2818
F27.8166
F0.727924
tp486
a(F7699.0
F27.7561
F28.7931
F0.483956
tp487
a(F7711.0
F28.0144
F29.6933
F-0.031256
tp488
a(F7765.0
F30.051
F30.6101
F-1.72454
tp489
a(F7773.0
F29.6051
F29.5961
F-1.78715
tp490
a(F7779.0
F29.0722
F28.6597
F-1.84151
tp491
a(F7785.0
F28.5225
F27.7783
F-1.83634
tp492
a(F7789.0
F27.9081
F26.7367
F-1.75828
tp493
a(F7795.0
F26.9735
F25.5112
F-1.67899
tp494
a(F7799.0
F26.3342
F24.6037
F-1.69534
tp495
a(F7803.0
F25.6315
F23.7816
F-1.65717
tp496
a(F7807.0
F24.6856
F22.6825
F-1.60704
tp497
a(F7875.0
F9.71572
F9.05724
F-1.24018
tp498
a(F7885.0
F7.13498
F7.11989
F-1.2703
tp499
a(F7903.0
F2.33914
F3.77384
F-1.36181
tp500
a(F7907.0
F0.946492
F3.01068
F-1.36478
tp501
a(F7913.0
F-0.403232
F2.36948
F-1.39534
tp502
a(F7919.0
F-1.77875
F1.65817
F-1.42822
tp503
a(F7925.0
F-2.72927
F1.12349
F-1.42943
tp504
a(F7931.0
F-3.63831
F0.540732
F-1.43151
tp505
a(F7937.0
F-4.55866
F0.0452885
F-1.44865
tp506
a(F7945.0
F-5.59306
F-0.491753
F-1.43628
tp507
a(F7953.0
F-6.40797
F-1.14857
F-1.43845
tp508
a(F7961.0
F-7.45003
F-1.61147
F-1.53906
tp509
a(F7969.0
F-8.86732
F-2.03805
F-1.80859
tp510
a(F7975.0
F-10.2318
F-2.41566
F-1.70629
tp511
a(F7981.0
F-11.5386
F-2.79807
F-1.69725
tp512
a(F7987.0
F-13.1595
F-3.2617
F-1.76268
tp513
a(F7991.0
F-14.1317
F-3.66239
F-1.7919
tp514
a(F7995.0
F-15.1535
F-4.02316
F-1.79317
tp515
a(F7999.0
F-16.4245
F-4.64856
F-1.79807
tp516
a(F8005.0
F-17.5773
F-5.42968
F-1.78751
tp517
a(F8011.0
F-18.5728
F-6.45461
F-1.81364
tp518
a(F8017.0
F-19.0915
F-7.76141
F-1.88541
tp519
a(F8023.0
F-19.0171
F-8.97553
F-1.84573
tp520
a(F8031.0
F-18.9131
F-10.1805
F-1.77978
tp521
a(F8039.0
F-18.7478
F-11.2885
F-1.74405
tp522
a(F8051.0
F-18.6786
F-12.2843
F-1.67021
tp523
a(F8399.0
F2.44198
F7.01548
F-5.71547
tp524
a(F8473.0
F2.75433
F9.36223
F-5.81676
tp525
a(F8485.0
F3.3268
F10.1325
F-6.26636
tp526
a(F8497.0
F3.98937
F10.8933
F-6.85486
tp527
a(F8505.0
F4.58051
F11.6901
F-7.44325
tp528
a(F8515.0
F5.19362
F12.5333
F-8.00564
tp529
a(F8525.0
F5.81898
F13.3856
F-8.1717
tp530
a(F8535.0
F6.43055
F14.1721
F-8.59746
tp531
a(F8545.0
F7.10223
F14.8245
F-9.18952
tp532
a(F8555.0
F7.7122
F15.4986
F-9.73578
tp533
a(F9535.0
F23.9935
F21.1447
F-1.16865
tp534
a(F9539.0
F23.1697
F19.7211
F-1.1825
tp535
a(F9545.0
F22.1624
F18.2924
F-1.18396
tp536
a(F9549.0
F21.0569
F16.7378
F-1.15035
tp537
a(F9553.0
F20.2092
F15.6603
F-1.14156
tp538
a(F9557.0
F19.3616
F14.6434
F-1.15086
tp539
a(F9561.0
F18.3866
F13.3038
F-1.09712
tp540
a(F9565.0
F17.7932
F12.2779
F-1.17192
tp541
a(F9569.0
F17.4889
F11.175
F-1.25243
tp542
a(F9573.0
F17.6806
F9.90858
F-1.35299
tp543
a(F9579.0
F18.1599
F8.80673
F-1.34319
tp544
a(F9585.0
F18.8664
F7.7457
F-1.16884
tp545
a(F9601.0
F19.3253
F6.67655
F-1.19163
tp546
a(F9613.0
F18.7195
F5.61916
F-1.07981
tp547
a(F9621.0
F18.1558
F4.71328
F-1.07761
tp548
a(F9629.0
F17.3715
F3.70703
F-1.06296
tp549
a(F9637.0
F16.7864
F2.89367
F-1.03795
tp550
a(F9645.0
F15.8846
F2.07482
F-1.01823
tp551
a(F9653.0
F14.8681
F1.24203
F-0.979673
tp552
a(F9661.0
F13.9681
F0.696975
F-0.957005
tp553
a(F9671.0
F13.0055
F0.185768
F-0.945239
tp554
a(F9711.0
F13.8281
F-0.397886
F-1.07757
tp555
a(F9721.0
F15.0701
F-0.12155
F-1.00866
tp556
a(F9729.0
F16.0196
F0.258464
F-1.10998
tp557
a(F9739.0
F17.2394
F0.544798
F-1.08544
tp558
a(F9749.0
F18.257
F0.269026
F-1.08907
tp559
a(F9759.0
F18.9636
F-0.467636
F-1.141
tp560
a(F9767.0
F19.6369
F-1.30301
F-1.11364
tp561
a(F9779.0
F20.4463
F-2.24457
F-1.11452
tp562
a(F9791.0
F21.5184
F-2.44914
F-1.16626
tp563
a(F9807.0
F22.2204
F-1.86266
F-1.65369
tp564
a.