((dp1
S'tag_12'
p2
(F13.574753286393008
F0.066140877708193102
F-15.444983259390256
tp3
sS'tag_10'
p4
(F20.287336744912484
F-2.55137355957946
F66.353050144185715
tp5
sS'tag_584'
p6
(F5.3287973997848255
F-0.69389126530013101
F18.710134060302238
tp7
sS'tag_38'
p8
(F39.469310048022841
F-2.3287663096251947
F134.5275262461434
tp9
sS'tag_39'
p10
(F1.6414081978190111
F-0.1206354212734766
F0.067604654820485166
tp11
sS'tag_14'
p12
(F13.534577854582356
F5.0077322738389682
F-24.41341238002687
tp13
sS'tag_15'
p14
(F6.2193999084331395
F3.4619093685122948
F18.745531965384941
tp15
sS'tag_8'
p16
(F7.7893244432191118
F0.48370983208020846
F-32.573700860457961
tp17
sS'tag_9'
p18
(F14.55938442439027
F-1.2230316953373186
F34.756967377989255
tp19
sS'tag_11'
p20
(F19.621179747597441
F2.6939760250588591
F51.633883484999188
tp21
sS'tag_0'
p22
(F20.372741275690462
F2.1868029377773865
F66.435087201858636
tp23
sS'tag_2'
p24
(F12.327767657611282
F3.7977008670520718
F26.045349878799357
tp25
sS'tag_3'
p26
(F6.8947495359716129
F4.4713622667652118
F-3.4735223036057903
tp27
s(dp28
g2
(F-0.54358161607302524
F0.57448321152653714
F0.46748656601687605
F-0.3948979323006685
tp29
sg4
(F0.008985932463962289
F0.33008949852365593
F0.03244123431729163
F0.94334921545423722
tp30
sg6
(F0.02557860586789119
F0.77400682916747132
F0.00043199956470935233
F0.63266023796374959
tp31
sg8
(F0.1156350577383992
F0.68672269849550172
F0.70891257718054745
F-0.11172925627662522
tp32
sg10
(F0.017367129649051412
F0.99978862003637259
F0.0051565005211592334
F-0.0097215511053593238
tp33
sg12
(F-0.37732758880780931
F0.41135085085176631
F-0.56656516803107271
F0.60615037622848567
tp34
sg14
(F0.76452907689535676
F-0.011281450236033512
F0.64408217017018354
F-0.02293855991496262
tp35
sg16
(F0.13930424568604888
F-0.12531240433102411
F-0.68334720348206468
F0.70563994214320136
tp36
sg18
(F0.43036435754263741
F-0.42530524574158185
F-0.56841622138422587
F0.55749884929826032
tp37
sg20
(F0.0093132354783850846
F0.88968228331040733
F0.014796912954891215
F0.4562452737021061
tp38
sg22
(F-0.21325444115311681
F0.23683457738967792
F-0.65055588685525012
F0.68935401961481557
tp39
sg24
(F-0.40150533243573489
F-0.42909870595831517
F0.58303659934383045
F0.56101345117220769
tp40
sg26
(F0.015628620592153031
F0.63582900728736302
F0.017333964791678393
F0.77147699471530184
tp41
sg8
t.