((dp1
S'tag_584'
p2
(F5.5043771383267801
F-0.5109565260636677
F18.457460263612621
tp3
sS'tag_38'
p4
(F-4.261009761493205
F0.18771968744248513
F5.126798286660545
tp5
sS'tag_39'
p6
(F-4.2187448207322999
F0.40085349987572538
F0.95749778450934109
tp7
s(dp8
g2
(F0.01942399984450164
F0.77602234523864499
F0.00065952209283744981
F0.6304058953967383
tp9
sg4
(F-0.69914357277151473
F-0.040820394318368737
F-0.052148373241846714
F0.71190765358170138
tp10
sg6
(F0.021700608397556664
F0.99829305735089024
F0.014999919692093739
F-0.052106215074775308
tp11
sg4
t.