((dp1
S'tag_12'
p2
(F11.544474654909719
F-0.29352643716746751
F-15.657454671864652
tp3
sS'tag_584'
p4
(F5.0902562687158612
F-0.40889638660027305
F18.600068071251641
tp5
sS'tag_38'
p6
(F-7.9227309564810646
F0.23976872733383703
F4.5197620410934771
tp7
sS'tag_39'
p8
(F0.19604957831838998
F-0.26852107904963662
F0.26505975681572203
tp9
sS'tag_14'
p10
(F11.19244409071743
F4.5999745339137919
F-25.004719811637614
tp11
sS'tag_15'
p12
(F5.0908186603631824
F3.8557859199560722
F18.636737155271199
tp13
sS'tag_9'
p14
(F14.287077092419807
F-0.71263026467461188
F34.713229836353904
tp15
sS'tag_2'
p16
(F11.338634020678644
F4.2665239719520738
F25.854533875337701
tp17
sS'tag_3'
p18
(F5.1456043040373105
F4.4843250038749094
F-3.9774761975802946
tp19
s(dp20
g2
(F-0.55994989319531541
F0.57979098527762396
F0.4145589743181845
F-0.42242086514945243
tp21
sg4
(F0.017845029328901196
F0.76622094802892038
F0.0015134636344565086
F0.64232758243573851
tp22
sg6
(F0.35786327417441977
F0.6193184898750117
F0.61552259282488864
F-0.33092359060397242
tp23
sg8
(F0.019779422907322711
F0.99961884347462004
F0.0090768501208015624
F-0.016986847612222359
tp24
sg10
(F-0.38880449118667082
F0.41438910560328901
F-0.56629673309228112
F0.59700983817638198
tp25
sg12
(F0.77577262257843116
F-0.011064226069564293
F0.63079248259205434
F-0.012460532276651502
tp26
sg14
(F0.39868861684829532
F-0.40094931323979943
F-0.59029901794126372
F0.57605043566141467
tp27
sg16
(F-0.43975080317262544
F-0.42567582479725968
F0.56193093059611643
F0.55646469118137809
tp28
sg18
(F0.0082624714202225707
F0.64727586821070515
F0.0066966731634540621
F0.76218162964391223
tp29
sg6
t.