((dp1
S'tag_34'
p2
(F-3.7923577987406736
F3.9928675615048586
F-14.345713588260409
tp3
sS'tag_35'
p4
(cnumpy.core.multiarray
scalar
p5
(cnumpy
dtype
p6
(S'f8'
I0
I1
tRp7
(I3
S'<'
NNNI-1
I-1
I0
tbS'aRPK\xf6\x06\x0b@'
tRp8
g5
(g7
S'\x040\x07\\\xf4\xb9\xe3\xbf'
tRp9
g5
(g7
S'\xf4\xf4\xdb{\xfe\x02\x1a@'
tRp10
tp11
s(dp12
g2
(F0.4751423218164908
F0.51361329286477708
F0.53586061635163018
F-0.47254053715494737
tp13
sg4
(g5
(g7
S'\xfc\xa2r\xa1\x08>\x84?'
tRp14
g5
(g7
S'{A|h\xf1\xb1\xee?'
tRp15
g5
(g7
S'V\xc4v\xdc\xaa\xed\x99?'
tRp16
g5
(g7
S'\x17XE\xaf\x8f\x01\xd2?'
tRp17
tp18
sS'tag_34'
p19
t.