((dp1
S'tag_12'
p2
(F11.816040397353305
F-0.26780962379119799
F-14.93210246407935
tp3
sS'tag_11'
p4
(F19.147943066487116
F3.6335573862647728
F52.092474233463022
tp5
sS'tag_38'
p6
(F-75.346463910829613
F7.9260164901241623
F24.452470649099045
tp7
sS'tag_39'
p8
(F0.027865167219204068
F-0.080229681879028902
F0.38783398988030271
tp9
sS'tag_14'
p10
(F11.704271617131198
F4.5420260891852529
F-24.16490211882531
tp11
sS'tag_15'
p12
(F5.3159046666127807
F3.7725259034381651
F19.228975616294342
tp13
sS'tag_8'
p14
(F5.8684506793107971
F-0.2177225003125649
F-32.167133280709798
tp15
sS'tag_9'
p16
(F14.187438575028366
F-0.61883415911506745
F34.764003290701424
tp17
sS'tag_584'
p18
(F5.0941765142738262
F-0.4007243203713422
F18.645648769837582
tp19
sS'tag_2'
p20
(F11.312609746328988
F4.2897568096812613
F25.988922581959397
tp21
sS'tag_3'
p22
(F5.494057428045565
F4.4166859122409265
F-3.1948228472618894
tp23
s(dp24
g2
(F-0.55850080514827605
F0.57347991421991917
F0.42385151331710924
F-0.42373049606304941
tp25
sg4
(F0.0065365669398780978
F0.89469006428169795
F0.00066249981417809657
F0.44663914210719147
tp26
sg6
(F-0.45584371271269908
F0.5346990603248456
F0.53353593182888226
F0.47078958560647449
tp27
sg8
(F0.023685677159341025
F0.99960588391620164
F0.015063131200745591
F-0.00040940938176997616
tp28
sg10
(F-0.38192927847159897
F0.40485268377618516
F-0.57179134461831627
F0.60272629684207579
tp29
sg12
(F0.76140825500161613
F-0.0027126331205341563
F0.64771108842900782
F-0.026841325657598603
tp30
sg14
(F0.12124903206976383
F-0.12920803236139344
F-0.6826120952990602
F0.7089743887806309
tp31
sg16
(F0.39631958394380706
F-0.3995630381863563
F-0.59110714806114417
F0.57781701723721912
tp32
sg18
(F0.017665757371128063
F0.76609520454787361
F-0.0010128378655503438
F0.64248348830511914
tp33
sg20
(F-0.44185118542449586
F-0.43414435298865817
F0.56075552710658194
F0.54939917139220951
tp34
sg22
(F-0.0011883117042135445
F0.63883184407561289
F0.019075609600916969
F0.76910895458874928
tp35
sg6
t.